target datalayout = "e-m:e-p270:32:32-p271:32:32-p272:64:64-i64:64-i128:128-f80:128-n8:16:32:64-S128"
target triple = "x86_64-pc-linux-gnu"

%struct.cache_entry = type { %struct.hashmap_entry, %struct.stat_data, i32, i32, i32, i32, i32, %struct.object_id, [0 x i8] }
%struct.hashmap_entry = type { ptr, i32 }
%struct.stat_data = type { %struct.cache_time, %struct.cache_time, i32, i32, i32, i32, i32 }
%struct.cache_time = type { i32, i32 }
%struct.object_id = type { [32 x i8], i32 }
%struct.checkout = type { ptr, ptr, i32, ptr, ptr, %struct.checkout_metadata, i8 }
%struct.checkout_metadata = type { ptr, %struct.object_id, %struct.object_id }
%struct.index_state = type { ptr, i32, i32, i32, i32, ptr, ptr, ptr, %struct.cache_time, i8, i32, %struct.hashmap, %struct.hashmap, %struct.object_id, ptr, ptr, ptr, ptr, ptr, ptr, ptr }
%struct.hashmap = type { ptr, ptr, ptr, i32, i32, i32, i32, i8 }

@check_stat = external global i32, align 4

; Function Attrs: nounwind uwtable
define internal void @mark_colliding_entries(ptr noundef %0, ptr noundef %1, ptr noundef %2) #0 {
  %4 = alloca ptr, align 8
  %5 = alloca ptr, align 8
  %6 = alloca ptr, align 8
  %7 = alloca i32, align 4
  %8 = alloca i64, align 8
  %9 = alloca i32, align 4
  %10 = alloca ptr, align 8
  store ptr %0, ptr %4, align 8, !tbaa !18
  store ptr %1, ptr %5, align 8, !tbaa !4
  store ptr %2, ptr %6, align 8, !tbaa !20
  call void @llvm.lifetime.start.p0(i64 4, ptr %7) #10
  %11 = load i32, ptr @check_stat, align 4, !tbaa !16
  store i32 %11, ptr %7, align 4, !tbaa !16
  %12 = load ptr, ptr %5, align 8, !tbaa !4
  %13 = getelementptr inbounds nuw %struct.cache_entry, ptr %12, i32 0, i32 3
  %14 = load i32, ptr %13, align 8, !tbaa !16
  %15 = or i32 %14, 67108864
  store i32 %15, ptr %13, align 8, !tbaa !16
  %16 = load ptr, ptr %4, align 8, !tbaa !18
  %17 = getelementptr inbounds nuw %struct.checkout, ptr %16, i32 0, i32 0
  %18 = load ptr, ptr %17, align 8, !tbaa !46
  call void @ensure_full_index(ptr noundef %18)
  call void @llvm.lifetime.start.p0(i64 8, ptr %8) #10
  store i64 0, ptr %8, align 8, !tbaa !14
  br label %19

19:                                               ; preds = %80, %3
  %20 = load i64, ptr %8, align 8, !tbaa !14
  %21 = load ptr, ptr %4, align 8, !tbaa !18
  %22 = getelementptr inbounds nuw %struct.checkout, ptr %21, i32 0, i32 0
  %23 = load ptr, ptr %22, align 8, !tbaa !46
  %24 = getelementptr inbounds nuw %struct.index_state, ptr %23, i32 0, i32 2
  %25 = load i32, ptr %24, align 4, !tbaa !97
  %26 = zext i32 %25 to i64
  %27 = icmp ult i64 %20, %26
  br i1 %27, label %29, label %28

28:                                               ; preds = %19
  store i32 2, ptr %9, align 4
  br label %83

29:                                               ; preds = %19
  call void @llvm.lifetime.start.p0(i64 8, ptr %10) #10
  %30 = load ptr, ptr %4, align 8, !tbaa !18
  %31 = getelementptr inbounds nuw %struct.checkout, ptr %30, i32 0, i32 0
  %32 = load ptr, ptr %31, align 8, !tbaa !46
  %33 = getelementptr inbounds nuw %struct.index_state, ptr %32, i32 0, i32 0
  %34 = load ptr, ptr %33, align 8, !tbaa !98
  %35 = load i64, ptr %8, align 8, !tbaa !14
  %36 = getelementptr inbounds nuw ptr, ptr %34, i64 %35
  %37 = load ptr, ptr %36, align 8, !tbaa !4
  store ptr %37, ptr %10, align 8, !tbaa !4
  %38 = load ptr, ptr %10, align 8, !tbaa !4
  %39 = load ptr, ptr %5, align 8, !tbaa !4
  %40 = icmp eq ptr %38, %39
  br i1 %40, label %41, label %46

41:                                               ; preds = %29
  %42 = call i32 @parallel_checkout_status()
  %43 = icmp eq i32 %42, 2
  br i1 %43, label %44, label %45

44:                                               ; preds = %41
  store i32 4, ptr %9, align 4
  br label %77

45:                                               ; preds = %41
  store i32 2, ptr %9, align 4
  br label %77

46:                                               ; preds = %29
  %47 = load ptr, ptr %10, align 8, !tbaa !4
  %48 = getelementptr inbounds nuw %struct.cache_entry, ptr %47, i32 0, i32 3
  %49 = load i32, ptr %48, align 8, !tbaa !16
  %50 = and i32 %49, 1140883456
  %51 = icmp ne i32 %50, 0
  br i1 %51, label %52, label %53

52:                                               ; preds = %46
  store i32 4, ptr %9, align 4
  br label %77

53:                                               ; preds = %46
  %54 = load i32, ptr %7, align 4, !tbaa !16
  %55 = icmp ne i32 %54, 0
  br i1 %55, label %56, label %62

56:                                               ; preds = %53
  %57 = load ptr, ptr %10, align 8, !tbaa !4
  %58 = getelementptr inbounds nuw %struct.cache_entry, ptr %57, i32 0, i32 1
  %59 = load ptr, ptr %6, align 8, !tbaa !20
  %60 = call i32 @match_stat_data(ptr noundef %58, ptr noundef %59)
  %61 = icmp ne i32 %60, 0
  br i1 %61, label %62, label %71

62:                                               ; preds = %56, %53
  %63 = load ptr, ptr %5, align 8, !tbaa !4
  %64 = getelementptr inbounds nuw %struct.cache_entry, ptr %63, i32 0, i32 8
  %65 = getelementptr inbounds [0 x i8], ptr %64, i64 0, i64 0
  %66 = load ptr, ptr %10, align 8, !tbaa !4
  %67 = getelementptr inbounds nuw %struct.cache_entry, ptr %66, i32 0, i32 8
  %68 = getelementptr inbounds [0 x i8], ptr %67, i64 0, i64 0
  %69 = call i32 @paths_collide(ptr noundef %65, ptr noundef %68)
  %70 = icmp ne i32 %69, 0
  br i1 %70, label %71, label %76

71:                                               ; preds = %62, %56
  %72 = load ptr, ptr %10, align 8, !tbaa !4
  %73 = getelementptr inbounds nuw %struct.cache_entry, ptr %72, i32 0, i32 3
  %74 = load i32, ptr %73, align 8, !tbaa !16
  %75 = or i32 %74, 67108864
  store i32 %75, ptr %73, align 8, !tbaa !16
  store i32 2, ptr %9, align 4
  br label %77

76:                                               ; preds = %62
  store i32 0, ptr %9, align 4
  br label %77

77:                                               ; preds = %76, %71, %52, %45, %44
  call void @llvm.lifetime.end.p0(i64 8, ptr %10) #10
  %78 = load i32, ptr %9, align 4
  switch i32 %78, label %83 [
    i32 0, label %79
    i32 4, label %80
  ]

79:                                               ; preds = %77
  br label %80

80:                                               ; preds = %79, %77
  %81 = load i64, ptr %8, align 8, !tbaa !14
  %82 = add i64 %81, 1
  store i64 %82, ptr %8, align 8, !tbaa !14
  br label %19, !llvm.loop !99

83:                                               ; preds = %77, %28
  call void @llvm.lifetime.end.p0(i64 8, ptr %8) #10
  br label %84

84:                                               ; preds = %83
  call void @llvm.lifetime.end.p0(i64 4, ptr %7) #10
  ret void
}