; Function Attrs: nounwind uwtable
define internal fastcc void @mark_colliding_entries(ptr noundef readonly captures(none) %0, ptr noundef %1, ptr noundef nonnull %2) unnamed_addr #0 {
  %4 = load i32, ptr @check_stat, align 4, !tbaa !11
  %5 = getelementptr inbounds nuw i8, ptr %1, i64 56
  %6 = load i32, ptr %5, align 8, !tbaa !11
  %7 = or i32 %6, 67108864
  store i32 %7, ptr %5, align 8, !tbaa !11
  %8 = load ptr, ptr %0, align 8, !tbaa !35
  tail call void @ensure_full_index(ptr noundef %8) #16
  %9 = load ptr, ptr %0, align 8, !tbaa !35
  %10 = getelementptr inbounds nuw i8, ptr %9, i64 12
  %11 = load i32, ptr %10, align 4, !tbaa !73
  %.not26 = icmp eq i32 %11, 0
  br i1 %.not26, label %.loopexit, label %.lr.ph

.lr.ph:                                           ; preds = %3
  %.fr = freeze i32 %4
  %.not19 = icmp eq i32 %.fr, 0
  %12 = getelementptr inbounds nuw i8, ptr %1, i64 108
  br i1 %.not19, label %.lr.ph.split.us, label %.lr.ph.split

.lr.ph.split.us:                                  ; preds = %.lr.ph, %select.unfold.us
  %13 = phi ptr [ %29, %select.unfold.us ], [ %9, %.lr.ph ]
  %.024.us = phi i64 [ %28, %select.unfold.us ], [ 0, %.lr.ph ]
  %14 = load ptr, ptr %13, align 8, !tbaa !74
  %15 = getelementptr inbounds nuw ptr, ptr %14, i64 %.024.us
  %16 = load ptr, ptr %15, align 8, !tbaa !75
  %17 = icmp eq ptr %16, %1
  br i1 %17, label %25, label %18

18:                                               ; preds = %.lr.ph.split.us
  %19 = getelementptr inbounds nuw i8, ptr %16, i64 56
  %20 = load i32, ptr %19, align 8, !tbaa !11
  %21 = and i32 %20, 1140883456
  %.not.us = icmp eq i32 %21, 0
  br i1 %.not.us, label %22, label %select.unfold.us

22:                                               ; preds = %18
  %23 = getelementptr inbounds nuw i8, ptr %16, i64 108
  %24 = tail call i32 @paths_collide(ptr noundef nonnull %12, ptr noundef nonnull %23) #16
  %.not21.us = icmp eq i32 %24, 0
  br i1 %.not21.us, label %select.unfold.us, label %.split.us

25:                                               ; preds = %.lr.ph.split.us
  %26 = tail call i32 @parallel_checkout_status() #16
  %27 = icmp eq i32 %26, 2
  br i1 %27, label %select.unfold.us, label %.loopexit

select.unfold.us:                                 ; preds = %25, %22, %18
  %28 = add nuw nsw i64 %.024.us, 1
  %29 = load ptr, ptr %0, align 8, !tbaa !35
  %30 = getelementptr inbounds nuw i8, ptr %29, i64 12
  %31 = load i32, ptr %30, align 4, !tbaa !73
  %32 = zext i32 %31 to i64
  %33 = icmp samesign ult i64 %28, %32
  br i1 %33, label %.lr.ph.split.us, label %.loopexit, !llvm.loop !77

.lr.ph.split:                                     ; preds = %.lr.ph, %select.unfold
  %34 = phi ptr [ %56, %select.unfold ], [ %9, %.lr.ph ]
  %.024 = phi i64 [ %55, %select.unfold ], [ 0, %.lr.ph ]
  %35 = load ptr, ptr %34, align 8, !tbaa !74
  %36 = getelementptr inbounds nuw ptr, ptr %35, i64 %.024
  %37 = load ptr, ptr %36, align 8, !tbaa !75
  %38 = icmp eq ptr %37, %1
  br i1 %38, label %39, label %42

39:                                               ; preds = %.lr.ph.split
  %40 = tail call i32 @parallel_checkout_status() #16
  %41 = icmp eq i32 %40, 2
  br i1 %41, label %select.unfold, label %.loopexit

42:                                               ; preds = %.lr.ph.split
  %43 = getelementptr inbounds nuw i8, ptr %37, i64 56
  %44 = load i32, ptr %43, align 8, !tbaa !11
  %45 = and i32 %44, 1140883456
  %.not = icmp eq i32 %45, 0
  br i1 %.not, label %46, label %select.unfold

46:                                               ; preds = %42
  %47 = getelementptr inbounds nuw i8, ptr %37, i64 16
  %48 = tail call i32 @match_stat_data(ptr noundef nonnull %47, ptr noundef nonnull %2) #16
  %.not20 = icmp eq i32 %48, 0
  br i1 %.not20, label %.split.us, label %49

49:                                               ; preds = %46
  %50 = getelementptr inbounds nuw i8, ptr %37, i64 108
  %51 = tail call i32 @paths_collide(ptr noundef nonnull %12, ptr noundef nonnull %50) #16
  %.not21 = icmp eq i32 %51, 0
  br i1 %.not21, label %select.unfold, label %.split.us

.split.us:                                        ; preds = %46, %49, %22
  %.us-phi = phi ptr [ %16, %22 ], [ %37, %49 ], [ %37, %46 ]
  %52 = getelementptr inbounds nuw i8, ptr %.us-phi, i64 56
  %53 = load i32, ptr %52, align 8, !tbaa !11
  %54 = or i32 %53, 67108864
  store i32 %54, ptr %52, align 8, !tbaa !11
  br label %.loopexit

select.unfold:                                    ; preds = %39, %42, %49
  %55 = add nuw nsw i64 %.024, 1
  %56 = load ptr, ptr %0, align 8, !tbaa !35
  %57 = getelementptr inbounds nuw i8, ptr %56, i64 12
  %58 = load i32, ptr %57, align 4, !tbaa !73
  %59 = zext i32 %58 to i64
  %60 = icmp samesign ult i64 %55, %59
  br i1 %60, label %.lr.ph.split, label %.loopexit, !llvm.loop !77

.loopexit:                                        ; preds = %select.unfold, %39, %select.unfold.us, %25, %3, %.split.us
  ret void
}